EXPORTS
	_ZN7RLogMan10LoadModuleER4TBufILi256EE @ 1 NONAME ; CODE
	_ZN7RLogMan10MemoryInfoEv @ 2 NONAME ; CODE
	_ZN7RLogMan11SetPortNameER4TBufILi16EE @ 3 NONAME ; CODE
	_ZN7RLogMan11StopServiceEv @ 4 NONAME ; CODE
	_ZN7RLogMan13ConnectSerialEv @ 5 NONAME ; CODE
	_ZN7RLogMan15WriteFormatListERK6TDesC8iiSt9__va_list @ 6 NONAME ; CODE
	_ZN7RLogMan15WriteFormatListERK7TDesC16iiSt9__va_list @ 7 NONAME ; CODE
	_ZN7RLogMan16DisconnectSerialEv @ 8 NONAME ; CODE
	_ZN7RLogMan17IsSerialConnectedEv @ 9 NONAME ; CODE
	_ZN7RLogMan4PortEv @ 10 NONAME ; CODE
	_ZN7RLogMan5CloseEv @ 11 NONAME ; CODE
	_ZN7RLogMan5WriteERK6TDesC8i @ 12 NONAME ; CODE
	_ZN7RLogMan5WriteERK7TDesC16i @ 13 NONAME ; CODE
	_ZN7RLogMan7ConnectEv @ 14 NONAME ; CODE
	_ZN7RLogMan7SetPortERi @ 15 NONAME ; CODE
	_ZN7RLogMan8HeapInfoEv @ 16 NONAME ; CODE
	_ZN7RLogMan8PortNameEv @ 17 NONAME ; CODE
	_ZN7RLogMan9BytesSentEv @ 18 NONAME ; CODE
	_ZN7RLogMan9StackInfoEv @ 19 NONAME ; CODE
	_ZN7RLogManC1Ev @ 20 NONAME ; CODE
	_ZN7RLogManC2Ev @ 21 NONAME ; CODE
	_ZN7RLogManD1Ev @ 22 NONAME ; CODE
	_ZN7RLogManD2Ev @ 23 NONAME ; CODE
	_ZNK7RLogMan7VersionEv @ 24 NONAME ; CODE

